target datalayout = "e-m:e-p270:32:32-p271:32:32-p272:64:64-i64:64-i128:128-f80:128-n8:16:32:64-S128"
target triple = "x86_64-pc-linux-gnu"

@hf_cigi3_component_control_component_id = internal global i32 0, align 4
@hf_cigi3_component_control_instance_id = internal global i32 0, align 4
@hf_cigi3_component_control_component_state = internal global i32 0, align 4
@hf_cigi3_component_control_data_1 = internal global i32 0, align 4
@hf_cigi3_component_control_data_2 = internal global i32 0, align 4
@hf_cigi3_component_control_data_3 = internal global i32 0, align 4
@hf_cigi3_component_control_data_4 = internal global i32 0, align 4
@hf_cigi3_component_control_data_5 = internal global i32 0, align 4
@hf_cigi3_component_control_data_6 = internal global i32 0, align 4
@hf_cigi3_3_component_control_component_class = internal global i32 0, align 4
@cigi_byte_order = internal global i32 0, align 4

; Function Attrs: null_pointer_is_valid sspstrong uwtable
define internal i32 @cigi4_add_component_control(ptr noundef %0, ptr noundef %1, ptr noundef %2, ptr noundef %3) #0 {
  %5 = alloca ptr, align 8
  %6 = alloca ptr, align 8
  %7 = alloca ptr, align 8
  %8 = alloca ptr, align 8
  %9 = alloca i32, align 4
  store ptr %0, ptr %5, align 8
  store ptr %1, ptr %6, align 8
  store ptr %2, ptr %7, align 8
  store ptr %3, ptr %8, align 8
  call void @llvm.lifetime.start.p0(i64 4, ptr %9) #5
  store i32 0, ptr %9, align 4
  %10 = load ptr, ptr %7, align 8
  %11 = load i32, ptr @hf_cigi3_component_control_component_id, align 4
  %12 = load ptr, ptr %5, align 8
  %13 = load i32, ptr %9, align 4
  %14 = load i32, ptr @cigi_byte_order, align 4
  %15 = call ptr @proto_tree_add_item(ptr noundef %10, i32 noundef %11, ptr noundef %12, i32 noundef %13, i32 noundef 2, i32 noundef %14)
  %16 = load i32, ptr %9, align 4
  %17 = add i32 %16, 2
  store i32 %17, ptr %9, align 4
  %18 = load ptr, ptr %7, align 8
  %19 = load i32, ptr @hf_cigi3_3_component_control_component_class, align 4
  %20 = load ptr, ptr %5, align 8
  %21 = load i32, ptr %9, align 4
  %22 = load i32, ptr @cigi_byte_order, align 4
  %23 = call ptr @proto_tree_add_item(ptr noundef %18, i32 noundef %19, ptr noundef %20, i32 noundef %21, i32 noundef 1, i32 noundef %22)
  %24 = load i32, ptr %9, align 4
  %25 = add i32 %24, 1
  store i32 %25, ptr %9, align 4
  %26 = load ptr, ptr %7, align 8
  %27 = load i32, ptr @hf_cigi3_component_control_component_state, align 4
  %28 = load ptr, ptr %5, align 8
  %29 = load i32, ptr %9, align 4
  %30 = load i32, ptr @cigi_byte_order, align 4
  %31 = call ptr @proto_tree_add_item(ptr noundef %26, i32 noundef %27, ptr noundef %28, i32 noundef %29, i32 noundef 1, i32 noundef %30)
  %32 = load i32, ptr %9, align 4
  %33 = add i32 %32, 1
  store i32 %33, ptr %9, align 4
  %34 = load ptr, ptr %7, align 8
  %35 = load i32, ptr @hf_cigi3_component_control_instance_id, align 4
  %36 = load ptr, ptr %5, align 8
  %37 = load i32, ptr %9, align 4
  %38 = load i32, ptr @cigi_byte_order, align 4
  %39 = call ptr @proto_tree_add_item(ptr noundef %34, i32 noundef %35, ptr noundef %36, i32 noundef %37, i32 noundef 2, i32 noundef %38)
  %40 = load i32, ptr %9, align 4
  %41 = add i32 %40, 2
  store i32 %41, ptr %9, align 4
  %42 = load i32, ptr %9, align 4
  %43 = add i32 %42, 6
  store i32 %43, ptr %9, align 4
  %44 = load ptr, ptr %7, align 8
  %45 = load i32, ptr @hf_cigi3_component_control_data_1, align 4
  %46 = load ptr, ptr %5, align 8
  %47 = load i32, ptr %9, align 4
  %48 = load i32, ptr @cigi_byte_order, align 4
  %49 = call ptr @proto_tree_add_item(ptr noundef %44, i32 noundef %45, ptr noundef %46, i32 noundef %47, i32 noundef 4, i32 noundef %48)
  %50 = load i32, ptr %9, align 4
  %51 = add i32 %50, 4
  store i32 %51, ptr %9, align 4
  %52 = load ptr, ptr %7, align 8
  %53 = load i32, ptr @hf_cigi3_component_control_data_2, align 4
  %54 = load ptr, ptr %5, align 8
  %55 = load i32, ptr %9, align 4
  %56 = load i32, ptr @cigi_byte_order, align 4
  %57 = call ptr @proto_tree_add_item(ptr noundef %52, i32 noundef %53, ptr noundef %54, i32 noundef %55, i32 noundef 4, i32 noundef %56)
  %58 = load i32, ptr %9, align 4
  %59 = add i32 %58, 4
  store i32 %59, ptr %9, align 4
  %60 = load ptr, ptr %7, align 8
  %61 = load i32, ptr @hf_cigi3_component_control_data_3, align 4
  %62 = load ptr, ptr %5, align 8
  %63 = load i32, ptr %9, align 4
  %64 = load i32, ptr @cigi_byte_order, align 4
  %65 = call ptr @proto_tree_add_item(ptr noundef %60, i32 noundef %61, ptr noundef %62, i32 noundef %63, i32 noundef 4, i32 noundef %64)
  %66 = load i32, ptr %9, align 4
  %67 = add i32 %66, 4
  store i32 %67, ptr %9, align 4
  %68 = load ptr, ptr %7, align 8
  %69 = load i32, ptr @hf_cigi3_component_control_data_4, align 4
  %70 = load ptr, ptr %5, align 8
  %71 = load i32, ptr %9, align 4
  %72 = load i32, ptr @cigi_byte_order, align 4
  %73 = call ptr @proto_tree_add_item(ptr noundef %68, i32 noundef %69, ptr noundef %70, i32 noundef %71, i32 noundef 4, i32 noundef %72)
  %74 = load i32, ptr %9, align 4
  %75 = add i32 %74, 4
  store i32 %75, ptr %9, align 4
  %76 = load ptr, ptr %7, align 8
  %77 = load i32, ptr @hf_cigi3_component_control_data_5, align 4
  %78 = load ptr, ptr %5, align 8
  %79 = load i32, ptr %9, align 4
  %80 = load i32, ptr @cigi_byte_order, align 4
  %81 = call ptr @proto_tree_add_item(ptr noundef %76, i32 noundef %77, ptr noundef %78, i32 noundef %79, i32 noundef 4, i32 noundef %80)
  %82 = load i32, ptr %9, align 4
  %83 = add i32 %82, 4
  store i32 %83, ptr %9, align 4
  %84 = load ptr, ptr %7, align 8
  %85 = load i32, ptr @hf_cigi3_component_control_data_6, align 4
  %86 = load ptr, ptr %5, align 8
  %87 = load i32, ptr %9, align 4
  %88 = load i32, ptr @cigi_byte_order, align 4
  %89 = call ptr @proto_tree_add_item(ptr noundef %84, i32 noundef %85, ptr noundef %86, i32 noundef %87, i32 noundef 4, i32 noundef %88)
  %90 = load i32, ptr %9, align 4
  %91 = add i32 %90, 4
  store i32 %91, ptr %9, align 4
  %92 = load i32, ptr %9, align 4
  call void @llvm.lifetime.end.p0(i64 4, ptr %9) #5
  ret i32 %92
}